target datalayout = "e-m:e-p270:32:32-p271:32:32-p272:64:64-i64:64-i128:128-f80:128-n8:16:32:64-S128"
target triple = "x86_64-unknown-linux-gnu"

%"class.std::__cxx11::basic_string" = type { %"struct.std::__cxx11::basic_string<char>::_Alloc_hider", i64, %union.anon }
%"struct.std::__cxx11::basic_string<char>::_Alloc_hider" = type { ptr }
%union.anon = type { i64, [8 x i8] }
%"class.std::allocator.0" = type { i8 }
%"class.std::initializer_list.117" = type { ptr, i64 }
%"class.std::allocator.107" = type { i8 }

@.str.10 = private unnamed_addr constant [35 x i8] c"rocksdb.internal.LegacyBloomFilter\00", align 1
@.str.11 = private unnamed_addr constant [38 x i8] c"rocksdb.internal.FastLocalBloomFilter\00", align 1
@.str.12 = private unnamed_addr constant [41 x i8] c"rocksdb.internal.Standard128RibbonFilter\00", align 1
@_ZZN7rocksdb21BloomLikeFilterPolicy16GetAllFixedImplsB5cxx11EvE5implsB5cxx11 = internal global ptr null, align 8
@_ZGVZN7rocksdb21BloomLikeFilterPolicy16GetAllFixedImplsB5cxx11EvE5implsB5cxx11 = internal global i64 0, align 8

; Function Attrs: mustprogress nounwind uwtable
define linkonce_odr void @_ZNSt15__new_allocatorINSt7__cxx1112basic_stringIcSt11char_traitsIcESaIcEEEED2Ev(ptr noundef nonnull align 1 dereferenceable(1) %this) unnamed_addr #1 comdat align 2 {
entry:
  %this.addr = alloca ptr, align 8
  store ptr %this, ptr %this.addr, align 8
  ret void
}

; Function Attrs: mustprogress nounwind uwtable
define linkonce_odr void @_ZNSt15__new_allocatorINSt7__cxx1112basic_stringIcSt11char_traitsIcESaIcEEEEC2Ev(ptr noundef nonnull align 1 dereferenceable(1) %this) unnamed_addr #1 comdat align 2 {
entry:
  %this.addr = alloca ptr, align 8
  store ptr %this, ptr %this.addr, align 8
  ret void
}

; Function Attrs: mustprogress nounwind uwtable
define linkonce_odr void @_ZNSaINSt7__cxx1112basic_stringIcSt11char_traitsIcESaIcEEEED2Ev(ptr noundef nonnull align 1 dereferenceable(1) %this) unnamed_addr #1 comdat align 2 {
entry:
  %this.addr = alloca ptr, align 8
  store ptr %this, ptr %this.addr, align 8
  %this1 = load ptr, ptr %this.addr, align 8
  call void @_ZNSt15__new_allocatorINSt7__cxx1112basic_stringIcSt11char_traitsIcESaIcEEEED2Ev(ptr noundef nonnull align 1 dereferenceable(1) %this1) #3
  ret void
}

; Function Attrs: mustprogress nounwind uwtable
define linkonce_odr void @_ZNSaINSt7__cxx1112basic_stringIcSt11char_traitsIcESaIcEEEEC2Ev(ptr noundef nonnull align 1 dereferenceable(1) %this) unnamed_addr #1 comdat align 2 {
entry:
  %this.addr = alloca ptr, align 8
  store ptr %this, ptr %this.addr, align 8
  %this1 = load ptr, ptr %this.addr, align 8
  call void @_ZNSt15__new_allocatorINSt7__cxx1112basic_stringIcSt11char_traitsIcESaIcEEEEC2Ev(ptr noundef nonnull align 1 dereferenceable(1) %this1) #3
  ret void
}

; Function Attrs: mustprogress nounwind uwtable
define noundef ptr @_ZN7rocksdb4test29Standard128RibbonFilterPolicy10kClassNameEv() #1 align 2 {
entry:
  ret ptr @.str.12
}

; Function Attrs: mustprogress nounwind uwtable
define noundef ptr @_ZN7rocksdb4test26FastLocalBloomFilterPolicy10kClassNameEv() #1 align 2 {
entry:
  ret ptr @.str.11
}

; Function Attrs: mustprogress nounwind uwtable
define noundef ptr @_ZN7rocksdb4test23LegacyBloomFilterPolicy10kClassNameEv() #1 align 2 {
entry:
  ret ptr @.str.10
}

; Function Attrs: mustprogress uwtable
define noundef nonnull align 8 dereferenceable(24) ptr @_ZN7rocksdb21BloomLikeFilterPolicy16GetAllFixedImplsB5cxx11Ev() #0 align 2 personality ptr @__gxx_personality_v0 {
entry:
  %exn.slot = alloca ptr, align 8
  %ehselector.slot = alloca i32, align 4
  %agg.tmp = alloca %"class.std::initializer_list.117", align 8
  %ref.tmp = alloca [3 x %"class.std::__cxx11::basic_string"], align 8
  %arrayinit.endOfInit = alloca ptr, align 8
  %ref.tmp2 = alloca %"class.std::allocator.0", align 1
  %ref.tmp6 = alloca %"class.std::allocator.0", align 1
  %ref.tmp11 = alloca %"class.std::allocator.0", align 1
  %cleanup.isactive = alloca i1, align 1
  %ref.tmp14 = alloca %"class.std::allocator.107", align 1
  %cleanup.isactive17 = alloca i1, align 1
  %0 = load atomic i8, ptr @_ZGVZN7rocksdb21BloomLikeFilterPolicy16GetAllFixedImplsB5cxx11EvE5implsB5cxx11 acquire, align 8
  %guard.uninitialized = icmp eq i8 %0, 0
  br i1 %guard.uninitialized, label %init.check, label %init.end, !prof !7

init.check:                                       ; preds = %entry
  %1 = call i32 @__cxa_guard_acquire(ptr @_ZGVZN7rocksdb21BloomLikeFilterPolicy16GetAllFixedImplsB5cxx11EvE5implsB5cxx11) #3
  %tobool = icmp ne i32 %1, 0
  br i1 %tobool, label %init, label %init.end

init:                                             ; preds = %init.check
  %call = invoke noalias noundef nonnull ptr @_Znwm(i64 noundef 24) #20
          to label %invoke.cont unwind label %lpad

invoke.cont:                                      ; preds = %init
  store i1 true, ptr %cleanup.isactive17, align 1
  %arrayinit.begin = getelementptr inbounds [3 x %"class.std::__cxx11::basic_string"], ptr %ref.tmp, i64 0, i64 0
  store i1 true, ptr %cleanup.isactive, align 1
  store ptr %arrayinit.begin, ptr %arrayinit.endOfInit, align 8
  %call1 = call noundef ptr @_ZN7rocksdb4test23LegacyBloomFilterPolicy10kClassNameEv()
  call void @_ZNSaIcEC1Ev(ptr noundef nonnull align 1 dereferenceable(1) %ref.tmp2) #3
  invoke void @_ZNSt7__cxx1112basic_stringIcSt11char_traitsIcESaIcEEC2IS3_EEPKcRKS3_(ptr noundef nonnull align 8 dereferenceable(32) %arrayinit.begin, ptr noundef %call1, ptr noundef nonnull align 1 dereferenceable(1) %ref.tmp2)
          to label %invoke.cont4 unwind label %lpad3

invoke.cont4:                                     ; preds = %invoke.cont
  %arrayinit.element = getelementptr inbounds %"class.std::__cxx11::basic_string", ptr %arrayinit.begin, i64 1
  store ptr %arrayinit.element, ptr %arrayinit.endOfInit, align 8
  %call5 = call noundef ptr @_ZN7rocksdb4test26FastLocalBloomFilterPolicy10kClassNameEv()
  call void @_ZNSaIcEC1Ev(ptr noundef nonnull align 1 dereferenceable(1) %ref.tmp6) #3
  invoke void @_ZNSt7__cxx1112basic_stringIcSt11char_traitsIcESaIcEEC2IS3_EEPKcRKS3_(ptr noundef nonnull align 8 dereferenceable(32) %arrayinit.element, ptr noundef %call5, ptr noundef nonnull align 1 dereferenceable(1) %ref.tmp6)
          to label %invoke.cont8 unwind label %lpad7

invoke.cont8:                                     ; preds = %invoke.cont4
  %arrayinit.element9 = getelementptr inbounds %"class.std::__cxx11::basic_string", ptr %arrayinit.element, i64 1
  store ptr %arrayinit.element9, ptr %arrayinit.endOfInit, align 8
  %call10 = call noundef ptr @_ZN7rocksdb4test29Standard128RibbonFilterPolicy10kClassNameEv()
  call void @_ZNSaIcEC1Ev(ptr noundef nonnull align 1 dereferenceable(1) %ref.tmp11) #3
  invoke void @_ZNSt7__cxx1112basic_stringIcSt11char_traitsIcESaIcEEC2IS3_EEPKcRKS3_(ptr noundef nonnull align 8 dereferenceable(32) %arrayinit.element9, ptr noundef %call10, ptr noundef nonnull align 1 dereferenceable(1) %ref.tmp11)
          to label %invoke.cont13 unwind label %lpad12

invoke.cont13:                                    ; preds = %invoke.cont8
  store i1 false, ptr %cleanup.isactive, align 1
  %_M_array = getelementptr inbounds %"class.std::initializer_list.117", ptr %agg.tmp, i32 0, i32 0
  %arraystart = getelementptr inbounds [3 x %"class.std::__cxx11::basic_string"], ptr %ref.tmp, i64 0, i64 0
  store ptr %arraystart, ptr %_M_array, align 8
  %_M_len = getelementptr inbounds %"class.std::initializer_list.117", ptr %agg.tmp, i32 0, i32 1
  store i64 3, ptr %_M_len, align 8
  call void @_ZNSaINSt7__cxx1112basic_stringIcSt11char_traitsIcESaIcEEEEC2Ev(ptr noundef nonnull align 1 dereferenceable(1) %ref.tmp14) #3
  %2 = getelementptr inbounds { ptr, i64 }, ptr %agg.tmp, i32 0, i32 0
  %3 = load ptr, ptr %2, align 8
  %4 = getelementptr inbounds { ptr, i64 }, ptr %agg.tmp, i32 0, i32 1
  %5 = load i64, ptr %4, align 8
  invoke void @_ZNSt6vectorINSt7__cxx1112basic_stringIcSt11char_traitsIcESaIcEEESaIS5_EEC2ESt16initializer_listIS5_ERKS6_(ptr noundef nonnull align 8 dereferenceable(24) %call, ptr %3, i64 %5, ptr noundef nonnull align 1 dereferenceable(1) %ref.tmp14)
          to label %invoke.cont16 unwind label %lpad15

invoke.cont16:                                    ; preds = %invoke.cont13
  store i1 false, ptr %cleanup.isactive17, align 1
  call void @_ZNSaINSt7__cxx1112basic_stringIcSt11char_traitsIcESaIcEEEED2Ev(ptr noundef nonnull align 1 dereferenceable(1) %ref.tmp14) #3
  %array.begin = getelementptr inbounds [3 x %"class.std::__cxx11::basic_string"], ptr %ref.tmp, i32 0, i32 0
  %6 = getelementptr inbounds %"class.std::__cxx11::basic_string", ptr %array.begin, i64 3
  br label %arraydestroy.body

arraydestroy.body:                                ; preds = %arraydestroy.body, %invoke.cont16
  %arraydestroy.elementPast = phi ptr [ %6, %invoke.cont16 ], [ %arraydestroy.element, %arraydestroy.body ]
  %arraydestroy.element = getelementptr inbounds %"class.std::__cxx11::basic_string", ptr %arraydestroy.elementPast, i64 -1
  call void @_ZNSt7__cxx1112basic_stringIcSt11char_traitsIcESaIcEED1Ev(ptr noundef nonnull align 8 dereferenceable(32) %arraydestroy.element) #3
  %arraydestroy.done = icmp eq ptr %arraydestroy.element, %array.begin
  br i1 %arraydestroy.done, label %arraydestroy.done18, label %arraydestroy.body

arraydestroy.done18:                              ; preds = %arraydestroy.body
  call void @_ZNSaIcED1Ev(ptr noundef nonnull align 1 dereferenceable(1) %ref.tmp11) #3
  call void @_ZNSaIcED1Ev(ptr noundef nonnull align 1 dereferenceable(1) %ref.tmp6) #3
  call void @_ZNSaIcED1Ev(ptr noundef nonnull align 1 dereferenceable(1) %ref.tmp2) #3
  store ptr %call, ptr @_ZZN7rocksdb21BloomLikeFilterPolicy16GetAllFixedImplsB5cxx11EvE5implsB5cxx11, align 8
  call void @__cxa_guard_release(ptr @_ZGVZN7rocksdb21BloomLikeFilterPolicy16GetAllFixedImplsB5cxx11EvE5implsB5cxx11) #3
  br label %init.end

init.end:                                         ; preds = %arraydestroy.done18, %init.check, %entry
  %7 = load ptr, ptr @_ZZN7rocksdb21BloomLikeFilterPolicy16GetAllFixedImplsB5cxx11EvE5implsB5cxx11, align 8
  ret ptr %7

lpad:                                             ; preds = %init
  %8 = landingpad { ptr, i32 }
          cleanup
  %9 = extractvalue { ptr, i32 } %8, 0
  store ptr %9, ptr %exn.slot, align 8
  %10 = extractvalue { ptr, i32 } %8, 1
  store i32 %10, ptr %ehselector.slot, align 4
  br label %ehcleanup37

lpad3:                                            ; preds = %invoke.cont
  %11 = landingpad { ptr, i32 }
          cleanup
  %12 = extractvalue { ptr, i32 } %11, 0
  store ptr %12, ptr %exn.slot, align 8
  %13 = extractvalue { ptr, i32 } %11, 1
  store i32 %13, ptr %ehselector.slot, align 4
  br label %ehcleanup26

lpad7:                                            ; preds = %invoke.cont4
  %14 = landingpad { ptr, i32 }
          cleanup
  %15 = extractvalue { ptr, i32 } %14, 0
  store ptr %15, ptr %exn.slot, align 8
  %16 = extractvalue { ptr, i32 } %14, 1
  store i32 %16, ptr %ehselector.slot, align 4
  br label %ehcleanup25

lpad12:                                           ; preds = %invoke.cont8
  %17 = landingpad { ptr, i32 }
          cleanup
  %18 = extractvalue { ptr, i32 } %17, 0
  store ptr %18, ptr %exn.slot, align 8
  %19 = extractvalue { ptr, i32 } %17, 1
  store i32 %19, ptr %ehselector.slot, align 4
  br label %ehcleanup

lpad15:                                           ; preds = %invoke.cont13
  %20 = landingpad { ptr, i32 }
          cleanup
  %21 = extractvalue { ptr, i32 } %20, 0
  store ptr %21, ptr %exn.slot, align 8
  %22 = extractvalue { ptr, i32 } %20, 1
  store i32 %22, ptr %ehselector.slot, align 4
  call void @_ZNSaINSt7__cxx1112basic_stringIcSt11char_traitsIcESaIcEEEED2Ev(ptr noundef nonnull align 1 dereferenceable(1) %ref.tmp14) #3
  %array.begin19 = getelementptr inbounds [3 x %"class.std::__cxx11::basic_string"], ptr %ref.tmp, i32 0, i32 0
  %23 = getelementptr inbounds %"class.std::__cxx11::basic_string", ptr %array.begin19, i64 3
  br label %arraydestroy.body20

arraydestroy.body20:                              ; preds = %arraydestroy.body20, %lpad15
  %arraydestroy.elementPast21 = phi ptr [ %23, %lpad15 ], [ %arraydestroy.element22, %arraydestroy.body20 ]
  %arraydestroy.element22 = getelementptr inbounds %"class.std::__cxx11::basic_string", ptr %arraydestroy.elementPast21, i64 -1
  call void @_ZNSt7__cxx1112basic_stringIcSt11char_traitsIcESaIcEED1Ev(ptr noundef nonnull align 8 dereferenceable(32) %arraydestroy.element22) #3
  %arraydestroy.done23 = icmp eq ptr %arraydestroy.element22, %array.begin19
  br i1 %arraydestroy.done23, label %arraydestroy.done24, label %arraydestroy.body20

arraydestroy.done24:                              ; preds = %arraydestroy.body20
  br label %ehcleanup

ehcleanup:                                        ; preds = %arraydestroy.done24, %lpad12
  call void @_ZNSaIcED1Ev(ptr noundef nonnull align 1 dereferenceable(1) %ref.tmp11) #3
  br label %ehcleanup25

ehcleanup25:                                      ; preds = %ehcleanup, %lpad7
  call void @_ZNSaIcED1Ev(ptr noundef nonnull align 1 dereferenceable(1) %ref.tmp6) #3
  br label %ehcleanup26

ehcleanup26:                                      ; preds = %ehcleanup25, %lpad3
  call void @_ZNSaIcED1Ev(ptr noundef nonnull align 1 dereferenceable(1) %ref.tmp2) #3
  %cleanup.is_active = load i1, ptr %cleanup.isactive, align 1
  br i1 %cleanup.is_active, label %cleanup.action, label %cleanup.done

cleanup.action:                                   ; preds = %ehcleanup26
  %24 = load ptr, ptr %arrayinit.endOfInit, align 8
  %arraydestroy.isempty = icmp eq ptr %arrayinit.begin, %24
  br i1 %arraydestroy.isempty, label %arraydestroy.done32, label %arraydestroy.body28

arraydestroy.body28:                              ; preds = %arraydestroy.body28, %cleanup.action
  %arraydestroy.elementPast29 = phi ptr [ %24, %cleanup.action ], [ %arraydestroy.element30, %arraydestroy.body28 ]
  %arraydestroy.element30 = getelementptr inbounds %"class.std::__cxx11::basic_string", ptr %arraydestroy.elementPast29, i64 -1
  call void @_ZNSt7__cxx1112basic_stringIcSt11char_traitsIcESaIcEED1Ev(ptr noundef nonnull align 8 dereferenceable(32) %arraydestroy.element30) #3
  %arraydestroy.done31 = icmp eq ptr %arraydestroy.element30, %arrayinit.begin
  br i1 %arraydestroy.done31, label %arraydestroy.done32, label %arraydestroy.body28

arraydestroy.done32:                              ; preds = %arraydestroy.body28, %cleanup.action
  br label %cleanup.done

cleanup.done:                                     ; preds = %arraydestroy.done32, %ehcleanup26
  %cleanup.is_active34 = load i1, ptr %cleanup.isactive17, align 1
  br i1 %cleanup.is_active34, label %cleanup.action35, label %cleanup.done36

cleanup.action35:                                 ; preds = %cleanup.done
  call void @_ZdlPv(ptr noundef %call) #21
  br label %cleanup.done36

cleanup.done36:                                   ; preds = %cleanup.action35, %cleanup.done
  br label %ehcleanup37

ehcleanup37:                                      ; preds = %cleanup.done36, %lpad
  call void @__cxa_guard_abort(ptr @_ZGVZN7rocksdb21BloomLikeFilterPolicy16GetAllFixedImplsB5cxx11EvE5implsB5cxx11) #3
  br label %eh.resume

eh.resume:                                        ; preds = %ehcleanup37
  %exn = load ptr, ptr %exn.slot, align 8
  %sel = load i32, ptr %ehselector.slot, align 4
  %lpad.val = insertvalue { ptr, i32 } poison, ptr %exn, 0
  %lpad.val38 = insertvalue { ptr, i32 } %lpad.val, i32 %sel, 1
  resume { ptr, i32 } %lpad.val38
}