; Function Attrs: mustprogress uwtable
define noundef nonnull align 8 dereferenceable(24) ptr @_ZN7rocksdb21BloomLikeFilterPolicy16GetAllFixedImplsB5cxx11Ev() local_unnamed_addr #3 align 2 personality ptr @__gxx_personality_v0 {
entry:
  %ref.tmp = alloca [3 x %"class.std::__cxx11::basic_string"], align 8
  %ref.tmp2 = alloca %"class.std::allocator.0", align 1
  %ref.tmp6 = alloca %"class.std::allocator.0", align 1
  %ref.tmp11 = alloca %"class.std::allocator.0", align 1
  %ref.tmp14 = alloca %"class.std::allocator.107", align 1
  %0 = load atomic i8, ptr @_ZGVZN7rocksdb21BloomLikeFilterPolicy16GetAllFixedImplsB5cxx11EvE5implsB5cxx11 acquire, align 8
  %guard.uninitialized = icmp eq i8 %0, 0
  br i1 %guard.uninitialized, label %init.check, label %init.end, !prof !13

init.check:                                       ; preds = %entry
  %1 = tail call i32 @__cxa_guard_acquire(ptr nonnull @_ZGVZN7rocksdb21BloomLikeFilterPolicy16GetAllFixedImplsB5cxx11EvE5implsB5cxx11) #32
  %tobool.not = icmp eq i32 %1, 0
  br i1 %tobool.not, label %init.end, label %init

init:                                             ; preds = %init.check
  %call = invoke noalias noundef nonnull dereferenceable(24) ptr @_Znwm(i64 noundef 24) #34
          to label %invoke.cont unwind label %lpad

invoke.cont:                                      ; preds = %init
  call void @_ZNSaIcEC1Ev(ptr noundef nonnull align 1 dereferenceable(1) %ref.tmp2) #32
  invoke void @_ZNSt7__cxx1112basic_stringIcSt11char_traitsIcESaIcEEC2IS3_EEPKcRKS3_(ptr noundef nonnull align 8 dereferenceable(32) %ref.tmp, ptr noundef nonnull @.str.10, ptr noundef nonnull align 1 dereferenceable(1) %ref.tmp2)
          to label %invoke.cont4 unwind label %ehcleanup26.thread

invoke.cont4:                                     ; preds = %invoke.cont
  %arrayinit.element = getelementptr inbounds i8, ptr %ref.tmp, i64 32
  call void @_ZNSaIcEC1Ev(ptr noundef nonnull align 1 dereferenceable(1) %ref.tmp6) #32
  invoke void @_ZNSt7__cxx1112basic_stringIcSt11char_traitsIcESaIcEEC2IS3_EEPKcRKS3_(ptr noundef nonnull align 8 dereferenceable(32) %arrayinit.element, ptr noundef nonnull @.str.11, ptr noundef nonnull align 1 dereferenceable(1) %ref.tmp6)
          to label %invoke.cont8 unwind label %lpad7

invoke.cont8:                                     ; preds = %invoke.cont4
  %arrayinit.element9 = getelementptr inbounds i8, ptr %ref.tmp, i64 64
  call void @_ZNSaIcEC1Ev(ptr noundef nonnull align 1 dereferenceable(1) %ref.tmp11) #32
  invoke void @_ZNSt7__cxx1112basic_stringIcSt11char_traitsIcESaIcEEC2IS3_EEPKcRKS3_(ptr noundef nonnull align 8 dereferenceable(32) %arrayinit.element9, ptr noundef nonnull @.str.12, ptr noundef nonnull align 1 dereferenceable(1) %ref.tmp11)
          to label %invoke.cont13 unwind label %lpad12

invoke.cont13:                                    ; preds = %invoke.cont8
  invoke void @_ZNSt6vectorINSt7__cxx1112basic_stringIcSt11char_traitsIcESaIcEEESaIS5_EEC2ESt16initializer_listIS5_ERKS6_(ptr noundef nonnull align 8 dereferenceable(24) %call, ptr nonnull %ref.tmp, i64 3, ptr noundef nonnull align 1 dereferenceable(1) %ref.tmp14)
          to label %invoke.cont16 unwind label %lpad15

invoke.cont16:                                    ; preds = %invoke.cont13
  %2 = getelementptr inbounds i8, ptr %ref.tmp, i64 96
  br label %arraydestroy.body

arraydestroy.body:                                ; preds = %arraydestroy.body, %invoke.cont16
  %arraydestroy.elementPast = phi ptr [ %2, %invoke.cont16 ], [ %arraydestroy.element, %arraydestroy.body ]
  %arraydestroy.element = getelementptr inbounds i8, ptr %arraydestroy.elementPast, i64 -32
  call void @_ZNSt7__cxx1112basic_stringIcSt11char_traitsIcESaIcEED1Ev(ptr noundef nonnull align 8 dereferenceable(32) %arraydestroy.element) #32
  %arraydestroy.done = icmp eq ptr %arraydestroy.element, %ref.tmp
  br i1 %arraydestroy.done, label %arraydestroy.done18, label %arraydestroy.body

arraydestroy.done18:                              ; preds = %arraydestroy.body
  call void @_ZNSaIcED1Ev(ptr noundef nonnull align 1 dereferenceable(1) %ref.tmp11) #32
  call void @_ZNSaIcED1Ev(ptr noundef nonnull align 1 dereferenceable(1) %ref.tmp6) #32
  call void @_ZNSaIcED1Ev(ptr noundef nonnull align 1 dereferenceable(1) %ref.tmp2) #32
  store ptr %call, ptr @_ZZN7rocksdb21BloomLikeFilterPolicy16GetAllFixedImplsB5cxx11EvE5implsB5cxx11, align 8
  call void @__cxa_guard_release(ptr nonnull @_ZGVZN7rocksdb21BloomLikeFilterPolicy16GetAllFixedImplsB5cxx11EvE5implsB5cxx11) #32
  br label %init.end

init.end:                                         ; preds = %arraydestroy.done18, %init.check, %entry
  %3 = load ptr, ptr @_ZZN7rocksdb21BloomLikeFilterPolicy16GetAllFixedImplsB5cxx11EvE5implsB5cxx11, align 8
  ret ptr %3

lpad:                                             ; preds = %init
  %4 = landingpad { ptr, i32 }
          cleanup
  br label %ehcleanup37

ehcleanup26.thread:                               ; preds = %invoke.cont
  %5 = landingpad { ptr, i32 }
          cleanup
  call void @_ZNSaIcED1Ev(ptr noundef nonnull align 1 dereferenceable(1) %ref.tmp2) #32
  br label %cleanup.action35

lpad7:                                            ; preds = %invoke.cont4
  %6 = landingpad { ptr, i32 }
          cleanup
  br label %ehcleanup26

lpad12:                                           ; preds = %invoke.cont8
  %7 = landingpad { ptr, i32 }
          cleanup
  br label %ehcleanup

lpad15:                                           ; preds = %invoke.cont13
  %8 = landingpad { ptr, i32 }
          cleanup
  %9 = getelementptr inbounds i8, ptr %ref.tmp, i64 96
  br label %arraydestroy.body20

arraydestroy.body20:                              ; preds = %arraydestroy.body20, %lpad15
  %arraydestroy.elementPast21 = phi ptr [ %9, %lpad15 ], [ %arraydestroy.element22, %arraydestroy.body20 ]
  %arraydestroy.element22 = getelementptr inbounds i8, ptr %arraydestroy.elementPast21, i64 -32
  call void @_ZNSt7__cxx1112basic_stringIcSt11char_traitsIcESaIcEED1Ev(ptr noundef nonnull align 8 dereferenceable(32) %arraydestroy.element22) #32
  %arraydestroy.done23 = icmp eq ptr %arraydestroy.element22, %ref.tmp
  br i1 %arraydestroy.done23, label %ehcleanup, label %arraydestroy.body20

ehcleanup:                                        ; preds = %arraydestroy.body20, %lpad12
  %.pn = phi { ptr, i32 } [ %7, %lpad12 ], [ %8, %arraydestroy.body20 ]
  %10 = phi i1 [ false, %lpad12 ], [ true, %arraydestroy.body20 ]
  call void @_ZNSaIcED1Ev(ptr noundef nonnull align 1 dereferenceable(1) %ref.tmp11) #32
  br label %ehcleanup26

ehcleanup26:                                      ; preds = %lpad7, %ehcleanup
  %.pn.pn = phi { ptr, i32 } [ %.pn, %ehcleanup ], [ %6, %lpad7 ]
  %arrayinit.endOfInit.0 = phi ptr [ %arrayinit.element9, %ehcleanup ], [ %arrayinit.element, %lpad7 ]
  %cleanup.isactive.1 = phi i1 [ %10, %ehcleanup ], [ false, %lpad7 ]
  call void @_ZNSaIcED1Ev(ptr noundef nonnull align 1 dereferenceable(1) %ref.tmp6) #32
  call void @_ZNSaIcED1Ev(ptr noundef nonnull align 1 dereferenceable(1) %ref.tmp2) #32
  br i1 %cleanup.isactive.1, label %cleanup.action35, label %arraydestroy.body28

arraydestroy.body28:                              ; preds = %ehcleanup26, %arraydestroy.body28
  %arraydestroy.elementPast29 = phi ptr [ %arraydestroy.element30, %arraydestroy.body28 ], [ %arrayinit.endOfInit.0, %ehcleanup26 ]
  %arraydestroy.element30 = getelementptr inbounds i8, ptr %arraydestroy.elementPast29, i64 -32
  call void @_ZNSt7__cxx1112basic_stringIcSt11char_traitsIcESaIcEED1Ev(ptr noundef nonnull align 8 dereferenceable(32) %arraydestroy.element30) #32
  %arraydestroy.done31 = icmp eq ptr %arraydestroy.element30, %ref.tmp
  br i1 %arraydestroy.done31, label %cleanup.action35, label %arraydestroy.body28

cleanup.action35:                                 ; preds = %arraydestroy.body28, %ehcleanup26.thread, %ehcleanup26
  %.pn.pn.pn10 = phi { ptr, i32 } [ %5, %ehcleanup26.thread ], [ %.pn.pn, %ehcleanup26 ], [ %.pn.pn, %arraydestroy.body28 ]
  call void @_ZdlPv(ptr noundef nonnull %call) #31
  br label %ehcleanup37

ehcleanup37:                                      ; preds = %cleanup.action35, %lpad
  %.pn.pn.pn.pn = phi { ptr, i32 } [ %.pn.pn.pn10, %cleanup.action35 ], [ %4, %lpad ]
  call void @__cxa_guard_abort(ptr nonnull @_ZGVZN7rocksdb21BloomLikeFilterPolicy16GetAllFixedImplsB5cxx11EvE5implsB5cxx11) #32
  resume { ptr, i32 } %.pn.pn.pn.pn
}